; Function Attrs: mustprogress nofree norecurse nosync nounwind willreturn memory(argmem: read) uwtable
define hidden i32 @png_get_chunk_cache_max(ptr noalias noundef readonly %0) local_unnamed_addr #0 {
  %.not = icmp eq ptr %0, null
  br i1 %.not, label %5, label %2

2:                                                ; preds = %1
  %3 = getelementptr inbounds i8, ptr %0, i64 956
  %4 = load i32, ptr %3, align 4
  br label %5

5:                                                ; preds = %1, %2
  %6 = phi i32 [ %4, %2 ], [ 0, %1 ]
  ret i32 %6
}